; Function Attrs: null_pointer_is_valid sspstrong uwtable
define internal i32 @dissect_ipcp_pri_nbns_opt(ptr noundef %0, ptr noundef %1, ptr noundef %2, ptr readnone captures(none) %3) #1 {
  %5 = alloca ptr, align 8
  %6 = alloca ptr, align 8
  call void @llvm.lifetime.start.p0(i64 8, ptr nonnull %5) #8
  call void @llvm.lifetime.start.p0(i64 8, ptr nonnull %6) #8
  %7 = load i32, ptr @proto_ipcp_option_pri_nbns, align 4
  %8 = load i32, ptr @ett_ipcp_prinbns_opt, align 4
  %9 = call fastcc zeroext i1 @dissect_ipcp_fixed_opt(ptr noundef %0, ptr noundef %1, ptr noundef %2, i32 noundef %7, i32 noundef %8, i32 noundef 6, ptr noundef nonnull %5, ptr noundef nonnull %6)
  br i1 %9, label %10, label %14

10:                                               ; preds = %4
  %11 = load ptr, ptr %5, align 8
  %12 = load i32, ptr @hf_ipcp_opt_pri_nbns_address, align 4
  %13 = tail call ptr @proto_tree_add_item(ptr noundef %11, i32 noundef %12, ptr noundef %0, i32 noundef 2, i32 noundef 4, i32 noundef 0)
  br label %14

14:                                               ; preds = %4, %10
  %15 = tail call i32 @tvb_captured_length(ptr noundef %0)
  call void @llvm.lifetime.end.p0(i64 8, ptr nonnull %6) #8
  call void @llvm.lifetime.end.p0(i64 8, ptr nonnull %5) #8
  ret i32 %15
}